; Function Attrs: nounwind sspstrong uwtable
define dso_local noundef zeroext i1 @rb_ractor_local_storage_value_lookup(ptr noundef %0, ptr noundef %1) local_unnamed_addr #0 {
  %3 = load ptr, ptr @ruby_single_main_ractor, align 8, !tbaa !39
  %.not.i.i = icmp eq ptr %3, null
  br i1 %.not.i.i, label %rb_ractor_main_p.exit.i, label %rb_ractor_main_p.exit.thread.i

rb_ractor_main_p.exit.i:                          ; preds = %2
  %4 = tail call align 8 ptr @llvm.threadlocal.address.p0(ptr align 8 @ruby_current_ec)
  %5 = load ptr, ptr %4, align 8, !tbaa !123
  %6 = getelementptr i8, ptr %5, i64 48
  %.val.i.i.i = load ptr, ptr %6, align 8, !tbaa !90, !nonnull !99, !noundef !99
  %7 = getelementptr inbounds nuw i8, ptr %.val.i.i.i, i64 24
  %8 = load ptr, ptr %7, align 8, !tbaa !57
  %9 = getelementptr inbounds nuw i8, ptr %.val.i.i.i, i64 32
  %10 = load ptr, ptr %9, align 8, !tbaa !79
  %11 = getelementptr inbounds nuw i8, ptr %10, i64 32
  %12 = load ptr, ptr %11, align 8, !tbaa !124
  %13 = icmp eq ptr %8, %12
  br i1 %13, label %rb_ractor_main_p.exit.thread.i, label %rb_current_ractor.exit.i

rb_ractor_main_p.exit.thread.i:                   ; preds = %rb_ractor_main_p.exit.i, %2
  %14 = getelementptr inbounds nuw i8, ptr %0, i64 8
  %15 = load ptr, ptr %14, align 8, !tbaa !180
  %16 = icmp eq ptr %15, inttoptr (i64 36 to ptr)
  br i1 %16, label %ractor_local_ref.exit, label %17

17:                                               ; preds = %rb_ractor_main_p.exit.thread.i
  store ptr %15, ptr %1, align 8, !tbaa !189
  br label %ractor_local_ref.exit

rb_current_ractor.exit.i:                         ; preds = %rb_ractor_main_p.exit.i
  %18 = getelementptr inbounds nuw i8, ptr %8, i64 448
  %19 = load ptr, ptr %18, align 8, !tbaa !188
  %.not.i = icmp eq ptr %19, null
  br i1 %.not.i, label %23, label %20

20:                                               ; preds = %rb_current_ractor.exit.i
  %21 = ptrtoint ptr %0 to i64
  %22 = tail call i32 @rb_st_lookup(ptr noundef nonnull %19, i64 noundef %21, ptr noundef %1) #19
  %.not9.i = icmp eq i32 %22, 0
  br i1 %.not9.i, label %23, label %ractor_local_ref.exit

23:                                               ; preds = %20, %rb_current_ractor.exit.i
  br label %ractor_local_ref.exit

ractor_local_ref.exit:                            ; preds = %rb_ractor_main_p.exit.thread.i, %17, %20, %23
  %.0.i = phi i1 [ true, %17 ], [ false, %rb_ractor_main_p.exit.thread.i ], [ false, %23 ], [ true, %20 ]
  ret i1 %.0.i
}